target datalayout = "e-m:e-p270:32:32-p271:32:32-p272:64:64-i64:64-i128:128-f80:128-n8:16:32:64-S128"
target triple = "x86_64-unknown-linux-gnu"

%"class.net::QuicConfigValue" = type { ptr, i32, i32 }
%"class.net::QuicNegotiableValue" = type <{ %"class.net::QuicConfigValue", i8, [7 x i8] }>
%"class.net::QuicNegotiableUint32" = type { %"class.net::QuicNegotiableValue.base", i32, i32, i32 }
%"class.net::QuicNegotiableValue.base" = type <{ %"class.net::QuicConfigValue", i8 }>
%"class.std::vector" = type { %"struct.std::_Vector_base" }
%"struct.std::_Vector_base" = type { %"struct.std::_Vector_base<unsigned int, std::allocator<unsigned int>>::_Vector_impl" }
%"struct.std::_Vector_base<unsigned int, std::allocator<unsigned int>>::_Vector_impl" = type { %"struct.std::_Vector_base<unsigned int, std::allocator<unsigned int>>::_Vector_impl_data" }
%"struct.std::_Vector_base<unsigned int, std::allocator<unsigned int>>::_Vector_impl_data" = type { ptr, ptr, ptr }
%"class.net::QuicFixedUint32" = type <{ %"class.net::QuicConfigValue", i32, i8, [3 x i8], i32, i8, [3 x i8] }>
%"class.net::QuicFixedTagVector" = type <{ %"class.net::QuicConfigValue", %"class.std::vector", i8, [7 x i8], %"class.std::vector", i8, [7 x i8] }>
%"class.net::QuicFixedIPEndPoint" = type <{ %"class.net::QuicConfigValue", %"class.net::IPEndPoint", i8, [7 x i8], %"class.net::IPEndPoint", i8, [7 x i8] }>
%"class.net::IPEndPoint" = type <{ %"class.net::IPAddress", i16, [6 x i8] }>
%"class.net::IPAddress" = type { %"class.std::vector.8" }
%"class.std::vector.8" = type { %"struct.std::_Vector_base.9" }
%"struct.std::_Vector_base.9" = type { %"struct.std::_Vector_base<unsigned char, std::allocator<unsigned char>>::_Vector_impl" }
%"struct.std::_Vector_base<unsigned char, std::allocator<unsigned char>>::_Vector_impl" = type { %"struct.std::_Vector_base<unsigned char, std::allocator<unsigned char>>::_Vector_impl_data" }
%"struct.std::_Vector_base<unsigned char, std::allocator<unsigned char>>::_Vector_impl_data" = type { ptr, ptr, ptr }
%"class.net::QuicConfig" = type { %"class.net::QuicTime::Delta", %"class.net::QuicTime::Delta", i64, %"class.net::QuicFixedTagVector", %"class.net::QuicNegotiableUint32", %"class.net::QuicNegotiableUint32", %"class.net::QuicNegotiableUint32", %"class.net::QuicFixedUint32", %"class.net::QuicFixedUint32", %"class.net::QuicFixedUint32", %"class.net::QuicFixedUint32", %"class.net::QuicFixedUint32", %"class.net::QuicFixedUint32", %"class.net::QuicNegotiableUint32", %"class.net::QuicFixedUint32", %"class.net::QuicFixedIPEndPoint", %"class.net::QuicFixedUint32" }
%"class.net::QuicTime::Delta" = type { %"class.base::TimeDelta", i64 }
%"class.base::TimeDelta" = type { i64 }

; Function Attrs: mustprogress nounwind uwtable
define linkonce_odr dso_local noundef zeroext i1 @_ZNK3net19QuicNegotiableValue10negotiatedEv(ptr noundef nonnull align 8 dereferenceable(17) %this) #3 comdat align 2 {
entry:
  %this.addr = alloca ptr, align 8
  store ptr %this, ptr %this.addr, align 8
  %this1 = load ptr, ptr %this.addr, align 8
  %negotiated_ = getelementptr inbounds %"class.net::QuicNegotiableValue", ptr %this1, i32 0, i32 1
  %0 = load i8, ptr %negotiated_, align 8
  %tobool = trunc i8 %0 to i1
  ret i1 %tobool
}

; Function Attrs: mustprogress uwtable
define dso_local noundef i32 @_ZNK3net20QuicNegotiableUint329GetUint32Ev(ptr noundef nonnull align 8 dereferenceable(32) %this) #0 align 2 {
entry:
  %retval = alloca i32, align 4
  %this.addr = alloca ptr, align 8
  store ptr %this, ptr %this.addr, align 8
  %this1 = load ptr, ptr %this.addr, align 8
  %call = call noundef zeroext i1 @_ZNK3net19QuicNegotiableValue10negotiatedEv(ptr noundef nonnull align 8 dereferenceable(17) %this1)
  br i1 %call, label %if.then, label %if.end

if.then:                                          ; preds = %entry
  %negotiated_value_ = getelementptr inbounds %"class.net::QuicNegotiableUint32", ptr %this1, i32 0, i32 3
  %0 = load i32, ptr %negotiated_value_, align 4
  store i32 %0, ptr %retval, align 4
  br label %return

if.end:                                           ; preds = %entry
  %default_value_ = getelementptr inbounds %"class.net::QuicNegotiableUint32", ptr %this1, i32 0, i32 2
  %1 = load i32, ptr %default_value_, align 8
  store i32 %1, ptr %retval, align 4
  br label %return

return:                                           ; preds = %if.end, %if.then
  %2 = load i32, ptr %retval, align 4
  ret i32 %2
}

; Function Attrs: mustprogress uwtable
define dso_local noundef i32 @_ZNK3net10QuicConfig23MaxStreamsPerConnectionEv(ptr noundef nonnull align 8 dereferenceable(600) %this) #0 align 2 {
entry:
  %this.addr = alloca ptr, align 8
  store ptr %this, ptr %this.addr, align 8
  %this1 = load ptr, ptr %this.addr, align 8
  %max_streams_per_connection_ = getelementptr inbounds %"class.net::QuicConfig", ptr %this1, i32 0, i32 6
  %call = call noundef i32 @_ZNK3net20QuicNegotiableUint329GetUint32Ev(ptr noundef nonnull align 8 dereferenceable(32) %max_streams_per_connection_)
  ret i32 %call
}