; Function Attrs: mustprogress nofree norecurse nosync nounwind willreturn memory(argmem: read) uwtable
define dso_local noundef i32 @_ZNK3net10QuicConfig23MaxStreamsPerConnectionEv(ptr nocapture noundef nonnull readonly align 8 dereferenceable(600) %this) local_unnamed_addr #9 align 2 {
entry:
  %max_streams_per_connection_ = getelementptr inbounds i8, ptr %this, i64 184
  %negotiated_.i.i = getelementptr inbounds i8, ptr %this, i64 200
  %0 = load i8, ptr %negotiated_.i.i, align 8
  %1 = and i8 %0, 1
  %tobool.i.not.i = icmp eq i8 %1, 0
  %retval.0.in.v.i = select i1 %tobool.i.not.i, i64 24, i64 28
  %retval.0.in.i = getelementptr inbounds i8, ptr %max_streams_per_connection_, i64 %retval.0.in.v.i
  %retval.0.i = load i32, ptr %retval.0.in.i, align 4
  ret i32 %retval.0.i
}